ccopy_reg
_reconstructor
p0
(csklearn.svm.classes
LinearSVC
p1
c__builtin__
object
p2
Ntp3
Rp4
(dp5
S'loss'
p6
S'squared_hinge'
p7
sS'C'
p8
F1.0
sS'max_iter'
p9
I1000
sS'verbose'
p10
I0
sS'fit_intercept'
p11
I01
sS'classes_'
p12
cnumpy.core.multiarray
_reconstruct
p13
(cnumpy
ndarray
p14
(I0
tp15
S'b'
p16
tp17
Rp18
(I1
(I2
tp19
cnumpy
dtype
p20
(S'i8'
p21
I0
I1
tp22
Rp23
(I3
S'<'
p24
NNNI-1
I-1
I0
tp25
bI00
S'\x00\x00\x00\x00\x00\x00\x00\x00\x01\x00\x00\x00\x00\x00\x00\x00'
p26
tp27
bsS'class_weight'
p28
NsS'n_iter_'
p29
cnumpy.core.multiarray
scalar
p30
(g20
(S'i4'
p31
I0
I1
tp32
Rp33
(I3
S'<'
p34
NNNI-1
I-1
I0
tp35
bS'\xe8\x03\x00\x00'
p36
tp37
Rp38
sS'penalty'
p39
S'l2'
p40
sS'multi_class'
p41
S'ovr'
p42
sS'random_state'
p43
NsS'_sklearn_version'
p44
S'0.18.1'
p45
sS'dual'
p46
I01
sS'tol'
p47
F0.0001
sS'coef_'
p48
g13
(g14
(I0
tp49
g16
tp50
Rp51
(I1
(I1
I3
tp52
g20
(S'f8'
p53
I0
I1
tp54
Rp55
(I3
S'<'
p56
NNNI-1
I-1
I0
tp57
bI01
S'\x10S\x1f\xa4\xe9\x01\xda\xbe\xae\xfe\x9e\xfb?\xa9V\xbf\xd3NK_\x98\xf9`\xbf'
p58
tp59
bsS'intercept_'
p60
g13
(g14
(I0
tp61
g16
tp62
Rp63
(I1
(I1
tp64
g55
I00
S'\xf5\xd2\xa2\x8f\xb4\x1bP\xbf'
p65
tp66
bsS'intercept_scaling'
p67
I1
sb.